target datalayout = "e-m:e-p270:32:32-p271:32:32-p272:64:64-i64:64-i128:128-f80:128-n8:16:32:64-S128"
target triple = "x86_64-pc-linux-gnu"

; Function Attrs: nounwind uwtable
define dso_local i32 @urlerr_cvt(i32 noundef %0) #0 {
  %2 = alloca i32, align 4
  %3 = alloca i32, align 4
  store i32 %0, ptr %3, align 4, !tbaa !33
  %4 = load i32, ptr %3, align 4, !tbaa !33
  %5 = icmp eq i32 %4, 7
  br i1 %5, label %6, label %7

6:                                                ; preds = %1
  store i32 27, ptr %2, align 4
  br label %23

7:                                                ; preds = %1
  %8 = load i32, ptr %3, align 4, !tbaa !33
  %9 = icmp eq i32 %8, 5
  br i1 %9, label %10, label %11

10:                                               ; preds = %7
  store i32 1, ptr %2, align 4
  br label %23

11:                                               ; preds = %7
  %12 = load i32, ptr %3, align 4, !tbaa !33
  %13 = icmp eq i32 %12, 30
  br i1 %13, label %14, label %15

14:                                               ; preds = %11
  store i32 4, ptr %2, align 4
  br label %23

15:                                               ; preds = %11
  %16 = load i32, ptr %3, align 4, !tbaa !33
  %17 = icmp eq i32 %16, 1
  br i1 %17, label %18, label %19

18:                                               ; preds = %15
  store i32 43, ptr %2, align 4
  br label %23

19:                                               ; preds = %15
  br label %20

20:                                               ; preds = %19
  br label %21

21:                                               ; preds = %20
  br label %22

22:                                               ; preds = %21
  store i32 3, ptr %2, align 4
  br label %23

23:                                               ; preds = %22, %18, %14, %10, %6
  %24 = load i32, ptr %2, align 4
  ret i32 %24
}