; Function Attrs: mustprogress nofree norecurse nosync nounwind willreturn memory(none) uwtable
define dso_local range(i32 1, 44) i32 @urlerr_cvt(i32 noundef %0) local_unnamed_addr #5 {
  switch i32 %0, label %5 [
    i32 7, label %6
    i32 5, label %2
    i32 30, label %3
    i32 1, label %4
  ]

2:                                                ; preds = %1
  br label %6

3:                                                ; preds = %1
  br label %6

4:                                                ; preds = %1
  br label %6

5:                                                ; preds = %1
  br label %6

6:                                                ; preds = %1, %5, %4, %3, %2
  %.0 = phi i32 [ 1, %2 ], [ 4, %3 ], [ 43, %4 ], [ 3, %5 ], [ 27, %1 ]
  ret i32 %.0
}